target datalayout = "e-m:e-p270:32:32-p271:32:32-p272:64:64-i64:64-i128:128-f80:128-n8:16:32:64-S128"
target triple = "x86_64-unknown-linux-gnu"

@.str.105 = private unnamed_addr constant [7 x i8] c"GATHER\00", align 1
@.str.106 = private unnamed_addr constant [12 x i8] c"REPARTITION\00", align 1

; Function Attrs: mustprogress nounwind uwtable
define noundef ptr @_ZN8facebook5velox4core18LocalPartitionNode8typeNameENS2_4TypeE(i32 noundef %type) #1 align 2 {
entry:
  %retval = alloca ptr, align 8
  %type.addr = alloca i32, align 4
  store i32 %type, ptr %type.addr, align 4
  %0 = load i32, ptr %type.addr, align 4
  switch i32 %0, label %sw.epilog [
    i32 0, label %sw.bb
    i32 1, label %sw.bb1
  ]

sw.bb:                                            ; preds = %entry
  store ptr @.str.105, ptr %retval, align 8
  br label %return

sw.bb1:                                           ; preds = %entry
  store ptr @.str.106, ptr %retval, align 8
  br label %return

sw.epilog:                                        ; preds = %entry
  call void @llvm.trap()
  call void @llvm.trap()
  unreachable

return:                                           ; preds = %sw.bb1, %sw.bb
  %1 = load ptr, ptr %retval, align 8
  ret ptr %1
}