; Function Attrs: mustprogress nounwind memory(inaccessiblemem: write) uwtable
define noundef nonnull ptr @_ZN8facebook5velox4core18LocalPartitionNode8typeNameENS2_4TypeE(i32 noundef %type) local_unnamed_addr #9 align 2 {
entry:
  switch i32 %type, label %sw.epilog [
    i32 0, label %return
    i32 1, label %sw.bb1
  ]

sw.bb1:                                           ; preds = %entry
  br label %return

sw.epilog:                                        ; preds = %entry
  tail call void @llvm.trap()
  unreachable

return:                                           ; preds = %entry, %sw.bb1
  %retval.0 = phi ptr [ @.str.106, %sw.bb1 ], [ @.str.105, %entry ]
  ret ptr %retval.0
}